; Function Attrs: mustprogress uwtable
define dso_local void @_ZN3tev8utf16to8ERKNSt3__112basic_stringIwNS0_11char_traitsIwEENS0_9allocatorIwEEEE(ptr dead_on_unwind noalias writable sret(%"class.std::__1::basic_string.2") align 8 %0, ptr noundef nonnull align 8 dereferenceable(24) %1) local_unnamed_addr #3 personality ptr @__gxx_personality_v0 {
  tail call void @llvm.memset.p0.i64(ptr noundef nonnull align 8 dereferenceable(24) %0, i8 0, i64 24, i1 false)
  %3 = load i8, ptr %1, align 8
  %4 = and i8 %3, 1
  %.not.i.i.i = icmp eq i8 %4, 0
  %5 = getelementptr inbounds i8, ptr %1, i64 16
  %6 = load ptr, ptr %5, align 8
  %7 = getelementptr inbounds i8, ptr %1, i64 4
  %8 = select i1 %.not.i.i.i, ptr %7, ptr %6
  %9 = getelementptr inbounds i8, ptr %1, i64 8
  %10 = load i64, ptr %9, align 8
  %11 = lshr i8 %3, 1
  %12 = zext nneg i8 %11 to i64
  %13 = select i1 %.not.i.i.i, i64 %12, i64 %10
  %14 = getelementptr inbounds i32, ptr %8, i64 %13
  %15 = invoke ptr @_ZN4utf88utf16to8INSt3__111__wrap_iterIPKwEENS1_20back_insert_iteratorINS1_12basic_stringIcNS1_11char_traitsIcEENS1_9allocatorIcEEEEEEEET0_T_SF_SE_(ptr %8, ptr %14, ptr nonnull %0)
          to label %18 unwind label %16

16:                                               ; preds = %2
  %17 = landingpad { ptr, i32 }
          cleanup
  tail call void @_ZNSt3__112basic_stringIcNS_11char_traitsIcEENS_9allocatorIcEEED1Ev(ptr noundef nonnull align 8 dereferenceable(24) %0) #27
  resume { ptr, i32 } %17

18:                                               ; preds = %2
  ret void
}